; Function Attrs: mustprogress nounwind uwtable
define internal fastcc void @_ZN5clang24EvaluatedExprVisitorBaseIN4llvm14make_const_ptrEN12_GLOBAL__N_121DynamicThisUseCheckerEE13VisitCallExprEPKNS_8CallExprE(ptr noundef nonnull align 8 dereferenceable(8) %0, ptr noundef nonnull %1) unnamed_addr #0 align 2 {
  %3 = load ptr, ptr %0, align 8
  %4 = tail call noundef zeroext i1 @_ZNK5clang8CallExpr24isUnevaluatedBuiltinCallERKNS_10ASTContextE(ptr noundef nonnull align 8 dereferenceable(24) %1, ptr noundef nonnull align 8 dereferenceable(23096) %3) #13
  br i1 %4, label %6, label %5

5:                                                ; preds = %2
  tail call fastcc void @_ZN5clang24EvaluatedExprVisitorBaseIN4llvm14make_const_ptrEN12_GLOBAL__N_121DynamicThisUseCheckerEE9VisitStmtEPKNS_4StmtE(ptr noundef nonnull align 8 dereferenceable(8) %0, ptr noundef %1)
  br label %6

6:                                                ; preds = %5, %2
  ret void
}